; ModuleID = '1/2091.c'
source_filename = "1/2091.c"
target datalayout = "e-m:e-p270:32:32-p271:32:32-p272:64:64-i64:64-f80:128-n8:16:32:64-S128"
target triple = "x86_64-pc-linux-gnu"

@.str = private unnamed_addr constant [3 x i8] c"%d\00", align 1
@num = common dso_local global i32 0, align 4
@.str.1 = private unnamed_addr constant [4 x i8] c"%d\0A\00", align 1

; Function Attrs: noinline nounwind uwtable
define dso_local i32 @main() #0 {
  %1 = alloca i32, align 4
  %2 = alloca i32, align 4
  %3 = alloca i32, align 4
  %4 = alloca i32, align 4
  %5 = alloca i32, align 4
  %6 = alloca i32, align 4
  %7 = alloca i32, align 4
  store i32 0, i32* %1, align 4
  %8 = call i32 (i8*, ...) @__isoc99_scanf(i8* getelementptr inbounds ([3 x i8], [3 x i8]* @.str, i64 0, i64 0), i32* %6)
  br label %9

9:                                                ; preds = %41, %0
  %10 = load i32, i32* %6, align 4
  %11 = icmp sge i32 %10, 1
  br i1 %11, label %12, label %44

12:                                               ; preds = %9
  %13 = call i32 (i8*, ...) @__isoc99_scanf(i8* getelementptr inbounds ([3 x i8], [3 x i8]* @.str, i64 0, i64 0), i32* %5)
  store i32 0, i32* @num, align 4
  %14 = load i32, i32* %5, align 4
  %15 = sitofp i32 %14 to double
  %16 = call double @sqrt(double %15) #3
  %17 = fptosi double %16 to i32
  store i32 %17, i32* %7, align 4
  store i32 1, i32* %2, align 4
  br label %18

18:                                               ; preds = %35, %12
  %19 = load i32, i32* %2, align 4
  %20 = load i32, i32* %7, align 4
  %21 = icmp sle i32 %19, %20
  br i1 %21, label %22, label %38

22:                                               ; preds = %18
  %23 = load i32, i32* %5, align 4
  %24 = load i32, i32* %2, align 4
  %25 = srem i32 %23, %24
  %26 = icmp eq i32 %25, 0
  br i1 %26, label %27, label %34

27:                                               ; preds = %22
  %28 = load i32, i32* @num, align 4
  %29 = add nsw i32 %28, 1
  store i32 %29, i32* @num, align 4
  %30 = load i32, i32* %5, align 4
  %31 = load i32, i32* %2, align 4
  %32 = sdiv i32 %30, %31
  %33 = load i32, i32* %2, align 4
  call void @f(i32 %32, i32 %33)
  br label %34

34:                                               ; preds = %27, %22
  br label %35

35:                                               ; preds = %34
  %36 = load i32, i32* %2, align 4
  %37 = add nsw i32 %36, 1
  store i32 %37, i32* %2, align 4
  br label %18

38:                                               ; preds = %18
  %39 = load i32, i32* @num, align 4
  %40 = call i32 (i8*, ...) @printf(i8* getelementptr inbounds ([4 x i8], [4 x i8]* @.str.1, i64 0, i64 0), i32 %39)
  br label %41

41:                                               ; preds = %38
  %42 = load i32, i32* %6, align 4
  %43 = add nsw i32 %42, -1
  store i32 %43, i32* %6, align 4
  br label %9

44:                                               ; preds = %9
  %45 = load i32, i32* %1, align 4
  ret i32 %45
}

declare dso_local i32 @__isoc99_scanf(i8*, ...) #1

; Function Attrs: nounwind
declare dso_local double @sqrt(double) #2

; Function Attrs: noinline nounwind uwtable
define dso_local void @f(i32 %0, i32 %1) #0 {
  %3 = alloca i32, align 4
  %4 = alloca i32, align 4
  %5 = alloca i32, align 4
  %6 = alloca i32, align 4
  store i32 %0, i32* %3, align 4
  store i32 %1, i32* %4, align 4
  %7 = load i32, i32* %4, align 4
  %8 = icmp eq i32 %7, 1
  br i1 %8, label %9, label %10

9:                                                ; preds = %2
  br label %41

10:                                               ; preds = %2
  %11 = load i32, i32* %3, align 4
  %12 = sitofp i32 %11 to double
  %13 = call double @sqrt(double %12) #3
  %14 = fptosi double %13 to i32
  store i32 %14, i32* %5, align 4
  %15 = load i32, i32* %5, align 4
  %16 = load i32, i32* %4, align 4
  %17 = icmp sge i32 %15, %16
  br i1 %17, label %18, label %41

18:                                               ; preds = %10
  %19 = load i32, i32* %4, align 4
  store i32 %19, i32* %6, align 4
  br label %20

20:                                               ; preds = %37, %18
  %21 = load i32, i32* %6, align 4
  %22 = load i32, i32* %5, align 4
  %23 = icmp sle i32 %21, %22
  br i1 %23, label %24, label %40

24:                                               ; preds = %20
  %25 = load i32, i32* %3, align 4
  %26 = load i32, i32* %6, align 4
  %27 = srem i32 %25, %26
  %28 = icmp eq i32 %27, 0
  br i1 %28, label %29, label %36

29:                                               ; preds = %24
  %30 = load i32, i32* @num, align 4
  %31 = add nsw i32 %30, 1
  store i32 %31, i32* @num, align 4
  %32 = load i32, i32* %3, align 4
  %33 = load i32, i32* %6, align 4
  %34 = sdiv i32 %32, %33
  %35 = load i32, i32* %6, align 4
  call void @f(i32 %34, i32 %35)
  br label %36

36:                                               ; preds = %29, %24
  br label %37

37:                                               ; preds = %36
  %38 = load i32, i32* %6, align 4
  %39 = add nsw i32 %38, 1
  store i32 %39, i32* %6, align 4
  br label %20

40:                                               ; preds = %20
  br label %41

41:                                               ; preds = %9, %40, %10
  ret void
}

declare dso_local i32 @printf(i8*, ...) #1


!llvm.module.flags = !{!0}
!llvm.ident = !{!1}

!0 = !{i32 1, !"wchar_size", i32 4}
!1 = !{!"clang version 10.0.0-4ubuntu1 "}
